; Function Attrs: mustprogress uwtable
define hidden void @_ZN6google8protobuf14DynamicMessageC2EPNS0_21DynamicMessageFactory8TypeInfoEb(ptr noundef nonnull align 8 dereferenceable(28) initializes((0, 28)) %0, ptr noundef %1, i1 noundef zeroext %2) unnamed_addr #3 align 2 personality ptr @__gxx_personality_v0 {
  %4 = getelementptr inbounds nuw i8, ptr %0, i64 8
  store i64 0, ptr %4, align 8, !tbaa !3
  store ptr getelementptr inbounds nuw inrange(-16, 152) (i8, ptr @_ZTVN6google8protobuf14DynamicMessageE, i64 16), ptr %0, align 8, !tbaa !8
  %5 = getelementptr inbounds nuw i8, ptr %0, i64 16
  store ptr %1, ptr %5, align 8, !tbaa !10
  %6 = getelementptr inbounds nuw i8, ptr %0, i64 24
  store i32 0, ptr %6, align 8, !tbaa !19
  %7 = getelementptr inbounds nuw i8, ptr %1, i64 64
  store ptr %0, ptr %7, align 8, !tbaa !139
  invoke void @_ZN6google8protobuf14DynamicMessage10SharedCtorEb(ptr noundef nonnull align 8 dereferenceable(28) %0, i1 noundef zeroext %2)
          to label %8 unwind label %9

8:                                                ; preds = %3
  ret void

9:                                                ; preds = %3
  %10 = landingpad { ptr, i32 }
          cleanup
  tail call void @_ZN6google8protobuf11MessageLiteD2Ev(ptr noundef nonnull align 8 dereferenceable(16) %0) #19
  resume { ptr, i32 } %10
}